; Function Attrs: null_pointer_is_valid sspstrong uwtable
define i32 @tvb_raw_offset(ptr noundef %0) local_unnamed_addr #0 {
  %2 = getelementptr inbounds nuw i8, ptr %0, i64 52
  %3 = load i32, ptr %2, align 4
  %4 = icmp eq i32 %3, -1
  br i1 %4, label %5, label %12

5:                                                ; preds = %1
  %6 = getelementptr inbounds nuw i8, ptr %0, i64 8
  %7 = load ptr, ptr %6, align 8
  %8 = getelementptr inbounds nuw i8, ptr %7, i64 16
  %9 = load ptr, ptr %8, align 8
  %.not.i.i = icmp eq ptr %9, null
  br i1 %.not.i.i, label %10, label %tvb_offset_from_real_beginning.exit

10:                                               ; preds = %5
  tail call void (ptr, ...) @proto_report_dissector_bug(ptr noundef nonnull @.str.9, ptr noundef nonnull @.str.1, i32 noundef 828) #18
  unreachable

tvb_offset_from_real_beginning.exit:              ; preds = %5
  %11 = tail call i32 %9(ptr noundef %0, i32 noundef 0)
  store i32 %11, ptr %2, align 4
  br label %12

12:                                               ; preds = %1, %tvb_offset_from_real_beginning.exit
  %13 = phi i32 [ %11, %tvb_offset_from_real_beginning.exit ], [ %3, %1 ]
  ret i32 %13
}